target datalayout = "e-m:e-p270:32:32-p271:32:32-p272:64:64-i64:64-i128:128-f80:128-n8:16:32:64-S128"
target triple = "x86_64-pc-linux-gnu"

%struct.Vec_Int_t_ = type { i32, i32, ptr }
%struct.Gia_Man_t_ = type { ptr, ptr, i32, i32, i32, i32, ptr, ptr, i32, i32, i32, ptr, ptr, %struct.Vec_Int_t_, %struct.Vec_Int_t_, i32, i32, i32, %struct.Vec_Int_t_, ptr, ptr, ptr, i32, i32, i32, i32, ptr, ptr, ptr, ptr, ptr, i32, i32, ptr, i32, ptr, ptr, ptr, ptr, ptr, ptr, ptr, ptr, ptr, ptr, ptr, ptr, ptr, ptr, ptr, ptr, ptr, ptr, %struct.Vec_Int_t_, %struct.Vec_Int_t_, ptr, ptr, ptr, ptr, ptr, ptr, ptr, ptr, ptr, ptr, ptr, ptr, ptr, ptr, ptr, ptr, ptr, ptr, ptr, ptr, ptr, i32, float, float, ptr, ptr, i32, ptr, ptr, ptr, ptr, ptr, ptr, ptr, ptr, ptr, ptr, ptr, ptr, ptr, ptr, ptr, i64, i64, ptr, ptr, i32, i32, i32, i32, i32, i32, i32, i32, i32, i32, i32, i32, ptr, ptr, ptr, ptr, ptr, ptr, ptr, ptr, i32, i32, i32, ptr, i32, i32, ptr, ptr, ptr, ptr, ptr, ptr, i32, i32, ptr, %struct.Vec_Int_t_, %struct.Vec_Int_t_, %struct.Vec_Int_t_, ptr, ptr, ptr, i32, i32, i32, i32, ptr, ptr, ptr, ptr, ptr }
%struct.Gia_Obj_t_ = type <{ i64, i32 }>
%struct.Vec_Wrd_t_ = type { i32, i32, ptr }

; Function Attrs: inlinehint nounwind uwtable
define internal ptr @Vec_WrdEntryP(ptr noundef %0, i32 noundef %1) #1 {
  %3 = alloca ptr, align 8
  %4 = alloca i32, align 4
  store ptr %0, ptr %3, align 8, !tbaa !122
  store i32 %1, ptr %4, align 4, !tbaa !8
  %5 = load ptr, ptr %3, align 8, !tbaa !122
  %6 = getelementptr inbounds nuw %struct.Vec_Wrd_t_, ptr %5, i32 0, i32 2
  %7 = load ptr, ptr %6, align 8, !tbaa !127
  %8 = load i32, ptr %4, align 4, !tbaa !8
  %9 = sext i32 %8 to i64
  %10 = getelementptr inbounds i64, ptr %7, i64 %9
  ret ptr %10
}

; Function Attrs: inlinehint nounwind uwtable
define internal i32 @Gia_ObjFaninC1(ptr noundef %0) #1 {
  %2 = alloca ptr, align 8
  store ptr %0, ptr %2, align 8, !tbaa !20
  %3 = load ptr, ptr %2, align 8, !tbaa !20
  %4 = load i64, ptr %3, align 4
  %5 = lshr i64 %4, 61
  %6 = and i64 %5, 1
  %7 = trunc i64 %6 to i32
  ret i32 %7
}

; Function Attrs: inlinehint nounwind uwtable
define internal i32 @Gia_ObjFaninC0(ptr noundef %0) #1 {
  %2 = alloca ptr, align 8
  store ptr %0, ptr %2, align 8, !tbaa !20
  %3 = load ptr, ptr %2, align 8, !tbaa !20
  %4 = load i64, ptr %3, align 4
  %5 = lshr i64 %4, 29
  %6 = and i64 %5, 1
  %7 = trunc i64 %6 to i32
  ret i32 %7
}

; Function Attrs: inlinehint nounwind uwtable
define internal i32 @Gia_ObjFaninId1(ptr noundef %0, i32 noundef %1) #1 {
  %3 = alloca ptr, align 8
  %4 = alloca i32, align 4
  store ptr %0, ptr %3, align 8, !tbaa !20
  store i32 %1, ptr %4, align 4, !tbaa !8
  %5 = load i32, ptr %4, align 4, !tbaa !8
  %6 = load ptr, ptr %3, align 8, !tbaa !20
  %7 = load i64, ptr %6, align 4
  %8 = lshr i64 %7, 32
  %9 = and i64 %8, 536870911
  %10 = trunc i64 %9 to i32
  %11 = sub nsw i32 %5, %10
  ret i32 %11
}

; Function Attrs: inlinehint nounwind uwtable
define internal i32 @Gia_ObjFaninId0(ptr noundef %0, i32 noundef %1) #1 {
  %3 = alloca ptr, align 8
  %4 = alloca i32, align 4
  store ptr %0, ptr %3, align 8, !tbaa !20
  store i32 %1, ptr %4, align 4, !tbaa !8
  %5 = load i32, ptr %4, align 4, !tbaa !8
  %6 = load ptr, ptr %3, align 8, !tbaa !20
  %7 = load i64, ptr %6, align 4
  %8 = and i64 %7, 536870911
  %9 = trunc i64 %8 to i32
  %10 = sub nsw i32 %5, %9
  ret i32 %10
}

; Function Attrs: inlinehint nounwind uwtable
define internal ptr @Gia_ManBuiltInData(ptr noundef %0, i32 noundef %1) #1 {
  %3 = alloca ptr, align 8
  %4 = alloca i32, align 4
  store ptr %0, ptr %3, align 8, !tbaa !19
  store i32 %1, ptr %4, align 4, !tbaa !8
  %5 = load ptr, ptr %3, align 8, !tbaa !19
  %6 = getelementptr inbounds nuw %struct.Gia_Man_t_, ptr %5, i32 0, i32 113
  %7 = load ptr, ptr %6, align 8, !tbaa !119
  %8 = load ptr, ptr %3, align 8, !tbaa !19
  %9 = getelementptr inbounds nuw %struct.Gia_Man_t_, ptr %8, i32 0, i32 109
  %10 = load i32, ptr %9, align 8, !tbaa !116
  %11 = load i32, ptr %4, align 4, !tbaa !8
  %12 = mul nsw i32 %10, %11
  %13 = call ptr @Vec_WrdEntryP(ptr noundef %7, i32 noundef %12)
  ret ptr %13
}

; Function Attrs: inlinehint nounwind uwtable
define internal ptr @Gia_ManObj(ptr noundef %0, i32 noundef %1) #1 {
  %3 = alloca ptr, align 8
  %4 = alloca i32, align 4
  store ptr %0, ptr %3, align 8, !tbaa !19
  store i32 %1, ptr %4, align 4, !tbaa !8
  %5 = load ptr, ptr %3, align 8, !tbaa !19
  %6 = getelementptr inbounds nuw %struct.Gia_Man_t_, ptr %5, i32 0, i32 6
  %7 = load ptr, ptr %6, align 8, !tbaa !51
  %8 = load i32, ptr %4, align 4, !tbaa !8
  %9 = sext i32 %8 to i64
  %10 = getelementptr inbounds %struct.Gia_Obj_t_, ptr %7, i64 %9
  ret ptr %10
}

; Function Attrs: nounwind uwtable
define void @Gia_ManBuiltInSimPerformInt(ptr noundef %0, i32 noundef %1) #0 {
  %3 = alloca ptr, align 8
  %4 = alloca i32, align 4
  %5 = alloca ptr, align 8
  %6 = alloca i32, align 4
  %7 = alloca ptr, align 8
  %8 = alloca ptr, align 8
  %9 = alloca ptr, align 8
  store ptr %0, ptr %3, align 8, !tbaa !19
  store i32 %1, ptr %4, align 4, !tbaa !8
  call void @llvm.lifetime.start.p0(i64 8, ptr %5) #11
  %10 = load ptr, ptr %3, align 8, !tbaa !19
  %11 = load i32, ptr %4, align 4, !tbaa !8
  %12 = call ptr @Gia_ManObj(ptr noundef %10, i32 noundef %11)
  store ptr %12, ptr %5, align 8, !tbaa !20
  call void @llvm.lifetime.start.p0(i64 4, ptr %6) #11
  call void @llvm.lifetime.start.p0(i64 8, ptr %7) #11
  %13 = load ptr, ptr %3, align 8, !tbaa !19
  %14 = load i32, ptr %4, align 4, !tbaa !8
  %15 = call ptr @Gia_ManBuiltInData(ptr noundef %13, i32 noundef %14)
  store ptr %15, ptr %7, align 8, !tbaa !129
  call void @llvm.lifetime.start.p0(i64 8, ptr %8) #11
  %16 = load ptr, ptr %3, align 8, !tbaa !19
  %17 = load ptr, ptr %5, align 8, !tbaa !20
  %18 = load i32, ptr %4, align 4, !tbaa !8
  %19 = call i32 @Gia_ObjFaninId0(ptr noundef %17, i32 noundef %18)
  %20 = call ptr @Gia_ManBuiltInData(ptr noundef %16, i32 noundef %19)
  store ptr %20, ptr %8, align 8, !tbaa !129
  call void @llvm.lifetime.start.p0(i64 8, ptr %9) #11
  %21 = load ptr, ptr %3, align 8, !tbaa !19
  %22 = load ptr, ptr %5, align 8, !tbaa !20
  %23 = load i32, ptr %4, align 4, !tbaa !8
  %24 = call i32 @Gia_ObjFaninId1(ptr noundef %22, i32 noundef %23)
  %25 = call ptr @Gia_ManBuiltInData(ptr noundef %21, i32 noundef %24)
  store ptr %25, ptr %9, align 8, !tbaa !129
  %26 = load ptr, ptr %5, align 8, !tbaa !20
  %27 = call i32 @Gia_ObjFaninC0(ptr noundef %26)
  %28 = icmp ne i32 %27, 0
  br i1 %28, label %29, label %90

29:                                               ; preds = %2
  %30 = load ptr, ptr %5, align 8, !tbaa !20
  %31 = call i32 @Gia_ObjFaninC1(ptr noundef %30)
  %32 = icmp ne i32 %31, 0
  br i1 %32, label %33, label %61

33:                                               ; preds = %29
  store i32 0, ptr %6, align 4, !tbaa !8
  br label %34

34:                                               ; preds = %57, %33
  %35 = load i32, ptr %6, align 4, !tbaa !8
  %36 = load ptr, ptr %3, align 8, !tbaa !19
  %37 = getelementptr inbounds nuw %struct.Gia_Man_t_, ptr %36, i32 0, i32 109
  %38 = load i32, ptr %37, align 8, !tbaa !116
  %39 = icmp slt i32 %35, %38
  br i1 %39, label %40, label %60

40:                                               ; preds = %34
  %41 = load ptr, ptr %8, align 8, !tbaa !129
  %42 = load i32, ptr %6, align 4, !tbaa !8
  %43 = sext i32 %42 to i64
  %44 = getelementptr inbounds i64, ptr %41, i64 %43
  %45 = load i64, ptr %44, align 8, !tbaa !29
  %46 = load ptr, ptr %9, align 8, !tbaa !129
  %47 = load i32, ptr %6, align 4, !tbaa !8
  %48 = sext i32 %47 to i64
  %49 = getelementptr inbounds i64, ptr %46, i64 %48
  %50 = load i64, ptr %49, align 8, !tbaa !29
  %51 = or i64 %45, %50
  %52 = xor i64 %51, -1
  %53 = load ptr, ptr %7, align 8, !tbaa !129
  %54 = load i32, ptr %6, align 4, !tbaa !8
  %55 = sext i32 %54 to i64
  %56 = getelementptr inbounds i64, ptr %53, i64 %55
  store i64 %52, ptr %56, align 8, !tbaa !29
  br label %57

57:                                               ; preds = %40
  %58 = load i32, ptr %6, align 4, !tbaa !8
  %59 = add nsw i32 %58, 1
  store i32 %59, ptr %6, align 4, !tbaa !8
  br label %34, !llvm.loop !130

60:                                               ; preds = %34
  br label %89

61:                                               ; preds = %29
  store i32 0, ptr %6, align 4, !tbaa !8
  br label %62

62:                                               ; preds = %85, %61
  %63 = load i32, ptr %6, align 4, !tbaa !8
  %64 = load ptr, ptr %3, align 8, !tbaa !19
  %65 = getelementptr inbounds nuw %struct.Gia_Man_t_, ptr %64, i32 0, i32 109
  %66 = load i32, ptr %65, align 8, !tbaa !116
  %67 = icmp slt i32 %63, %66
  br i1 %67, label %68, label %88

68:                                               ; preds = %62
  %69 = load ptr, ptr %8, align 8, !tbaa !129
  %70 = load i32, ptr %6, align 4, !tbaa !8
  %71 = sext i32 %70 to i64
  %72 = getelementptr inbounds i64, ptr %69, i64 %71
  %73 = load i64, ptr %72, align 8, !tbaa !29
  %74 = xor i64 %73, -1
  %75 = load ptr, ptr %9, align 8, !tbaa !129
  %76 = load i32, ptr %6, align 4, !tbaa !8
  %77 = sext i32 %76 to i64
  %78 = getelementptr inbounds i64, ptr %75, i64 %77
  %79 = load i64, ptr %78, align 8, !tbaa !29
  %80 = and i64 %74, %79
  %81 = load ptr, ptr %7, align 8, !tbaa !129
  %82 = load i32, ptr %6, align 4, !tbaa !8
  %83 = sext i32 %82 to i64
  %84 = getelementptr inbounds i64, ptr %81, i64 %83
  store i64 %80, ptr %84, align 8, !tbaa !29
  br label %85

85:                                               ; preds = %68
  %86 = load i32, ptr %6, align 4, !tbaa !8
  %87 = add nsw i32 %86, 1
  store i32 %87, ptr %6, align 4, !tbaa !8
  br label %62, !llvm.loop !131

88:                                               ; preds = %62
  br label %89

89:                                               ; preds = %88, %60
  br label %150

90:                                               ; preds = %2
  %91 = load ptr, ptr %5, align 8, !tbaa !20
  %92 = call i32 @Gia_ObjFaninC1(ptr noundef %91)
  %93 = icmp ne i32 %92, 0
  br i1 %93, label %94, label %122

94:                                               ; preds = %90
  store i32 0, ptr %6, align 4, !tbaa !8
  br label %95

95:                                               ; preds = %118, %94
  %96 = load i32, ptr %6, align 4, !tbaa !8
  %97 = load ptr, ptr %3, align 8, !tbaa !19
  %98 = getelementptr inbounds nuw %struct.Gia_Man_t_, ptr %97, i32 0, i32 109
  %99 = load i32, ptr %98, align 8, !tbaa !116
  %100 = icmp slt i32 %96, %99
  br i1 %100, label %101, label %121

101:                                              ; preds = %95
  %102 = load ptr, ptr %8, align 8, !tbaa !129
  %103 = load i32, ptr %6, align 4, !tbaa !8
  %104 = sext i32 %103 to i64
  %105 = getelementptr inbounds i64, ptr %102, i64 %104
  %106 = load i64, ptr %105, align 8, !tbaa !29
  %107 = load ptr, ptr %9, align 8, !tbaa !129
  %108 = load i32, ptr %6, align 4, !tbaa !8
  %109 = sext i32 %108 to i64
  %110 = getelementptr inbounds i64, ptr %107, i64 %109
  %111 = load i64, ptr %110, align 8, !tbaa !29
  %112 = xor i64 %111, -1
  %113 = and i64 %106, %112
  %114 = load ptr, ptr %7, align 8, !tbaa !129
  %115 = load i32, ptr %6, align 4, !tbaa !8
  %116 = sext i32 %115 to i64
  %117 = getelementptr inbounds i64, ptr %114, i64 %116
  store i64 %113, ptr %117, align 8, !tbaa !29
  br label %118

118:                                              ; preds = %101
  %119 = load i32, ptr %6, align 4, !tbaa !8
  %120 = add nsw i32 %119, 1
  store i32 %120, ptr %6, align 4, !tbaa !8
  br label %95, !llvm.loop !132

121:                                              ; preds = %95
  br label %149

122:                                              ; preds = %90
  store i32 0, ptr %6, align 4, !tbaa !8
  br label %123

123:                                              ; preds = %145, %122
  %124 = load i32, ptr %6, align 4, !tbaa !8
  %125 = load ptr, ptr %3, align 8, !tbaa !19
  %126 = getelementptr inbounds nuw %struct.Gia_Man_t_, ptr %125, i32 0, i32 109
  %127 = load i32, ptr %126, align 8, !tbaa !116
  %128 = icmp slt i32 %124, %127
  br i1 %128, label %129, label %148

129:                                              ; preds = %123
  %130 = load ptr, ptr %8, align 8, !tbaa !129
  %131 = load i32, ptr %6, align 4, !tbaa !8
  %132 = sext i32 %131 to i64
  %133 = getelementptr inbounds i64, ptr %130, i64 %132
  %134 = load i64, ptr %133, align 8, !tbaa !29
  %135 = load ptr, ptr %9, align 8, !tbaa !129
  %136 = load i32, ptr %6, align 4, !tbaa !8
  %137 = sext i32 %136 to i64
  %138 = getelementptr inbounds i64, ptr %135, i64 %137
  %139 = load i64, ptr %138, align 8, !tbaa !29
  %140 = and i64 %134, %139
  %141 = load ptr, ptr %7, align 8, !tbaa !129
  %142 = load i32, ptr %6, align 4, !tbaa !8
  %143 = sext i32 %142 to i64
  %144 = getelementptr inbounds i64, ptr %141, i64 %143
  store i64 %140, ptr %144, align 8, !tbaa !29
  br label %145

145:                                              ; preds = %129
  %146 = load i32, ptr %6, align 4, !tbaa !8
  %147 = add nsw i32 %146, 1
  store i32 %147, ptr %6, align 4, !tbaa !8
  br label %123, !llvm.loop !133

148:                                              ; preds = %123
  br label %149

149:                                              ; preds = %148, %121
  br label %150

150:                                              ; preds = %149, %89
  call void @llvm.lifetime.end.p0(i64 8, ptr %9) #11
  call void @llvm.lifetime.end.p0(i64 8, ptr %8) #11
  call void @llvm.lifetime.end.p0(i64 8, ptr %7) #11
  call void @llvm.lifetime.end.p0(i64 4, ptr %6) #11
  call void @llvm.lifetime.end.p0(i64 8, ptr %5) #11
  ret void
}