; Function Attrs: nofree norecurse nosync nounwind memory(readwrite, inaccessiblemem: none) uwtable
define void @Gia_ManBuiltInSimPerformInt(ptr noundef readonly captures(none) %0, i32 noundef %1) local_unnamed_addr #10 {
  %3 = getelementptr i8, ptr %0, i64 32
  %.val52 = load ptr, ptr %3, align 8, !tbaa !16
  %4 = sext i32 %1 to i64
  %5 = getelementptr inbounds %struct.Gia_Obj_t_, ptr %.val52, i64 %4
  %6 = getelementptr i8, ptr %0, i64 816
  %.val54 = load i32, ptr %6, align 8, !tbaa !114
  %7 = getelementptr i8, ptr %0, i64 832
  %.val55 = load ptr, ptr %7, align 8, !tbaa !123
  %8 = getelementptr i8, ptr %.val55, i64 8
  %.val55.val = load ptr, ptr %8, align 8, !tbaa !119
  %9 = mul nsw i32 %.val54, %1
  %10 = sext i32 %9 to i64
  %11 = getelementptr inbounds i64, ptr %.val55.val, i64 %10
  %.val53 = load i64, ptr %5, align 4
  %12 = trunc i64 %.val53 to i32
  %13 = and i32 %12, 536870911
  %14 = sub nsw i32 %1, %13
  %15 = mul nsw i32 %14, %.val54
  %16 = sext i32 %15 to i64
  %17 = getelementptr inbounds i64, ptr %.val55.val, i64 %16
  %18 = lshr i64 %.val53, 32
  %19 = trunc nuw i64 %18 to i32
  %20 = and i32 %19, 536870911
  %21 = sub nsw i32 %1, %20
  %22 = mul nsw i32 %21, %.val54
  %23 = sext i32 %22 to i64
  %24 = getelementptr inbounds i64, ptr %.val55.val, i64 %23
  %25 = and i32 %12, 536870912
  %.not = icmp eq i32 %25, 0
  %26 = and i64 %.val53, 2305843009213693952
  %.not48 = icmp eq i64 %26, 0
  %27 = icmp sgt i32 %.val54, 0
  br i1 %.not, label %43, label %28

28:                                               ; preds = %2
  br i1 %.not48, label %.preheader63, label %.preheader65

.preheader65:                                     ; preds = %28
  br i1 %27, label %.lr.ph.preheader, label %.loopexit

.lr.ph.preheader:                                 ; preds = %.preheader65
  %wide.trip.count = zext nneg i32 %.val54 to i64
  br label %.lr.ph

.preheader63:                                     ; preds = %28
  br i1 %27, label %.lr.ph69.preheader, label %.loopexit

.lr.ph69.preheader:                               ; preds = %.preheader63
  %wide.trip.count81 = zext nneg i32 %.val54 to i64
  br label %.lr.ph69

.lr.ph:                                           ; preds = %.lr.ph.preheader, %.lr.ph
  %indvars.iv = phi i64 [ 0, %.lr.ph.preheader ], [ %indvars.iv.next, %.lr.ph ]
  %29 = getelementptr inbounds nuw i64, ptr %17, i64 %indvars.iv
  %30 = load i64, ptr %29, align 8, !tbaa !121
  %31 = getelementptr inbounds nuw i64, ptr %24, i64 %indvars.iv
  %32 = load i64, ptr %31, align 8, !tbaa !121
  %33 = or i64 %32, %30
  %34 = xor i64 %33, -1
  %35 = getelementptr inbounds nuw i64, ptr %11, i64 %indvars.iv
  store i64 %34, ptr %35, align 8, !tbaa !121
  %indvars.iv.next = add nuw nsw i64 %indvars.iv, 1
  %exitcond.not = icmp eq i64 %indvars.iv.next, %wide.trip.count
  br i1 %exitcond.not, label %.loopexit, label %.lr.ph, !llvm.loop !127

.lr.ph69:                                         ; preds = %.lr.ph69.preheader, %.lr.ph69
  %indvars.iv78 = phi i64 [ 0, %.lr.ph69.preheader ], [ %indvars.iv.next79, %.lr.ph69 ]
  %36 = getelementptr inbounds nuw i64, ptr %17, i64 %indvars.iv78
  %37 = load i64, ptr %36, align 8, !tbaa !121
  %38 = xor i64 %37, -1
  %39 = getelementptr inbounds nuw i64, ptr %24, i64 %indvars.iv78
  %40 = load i64, ptr %39, align 8, !tbaa !121
  %41 = and i64 %40, %38
  %42 = getelementptr inbounds nuw i64, ptr %11, i64 %indvars.iv78
  store i64 %41, ptr %42, align 8, !tbaa !121
  %indvars.iv.next79 = add nuw nsw i64 %indvars.iv78, 1
  %exitcond82.not = icmp eq i64 %indvars.iv.next79, %wide.trip.count81
  br i1 %exitcond82.not, label %.loopexit, label %.lr.ph69, !llvm.loop !128

43:                                               ; preds = %2
  br i1 %.not48, label %.preheader, label %.preheader61

.preheader61:                                     ; preds = %43
  br i1 %27, label %.lr.ph71.preheader, label %.loopexit

.lr.ph71.preheader:                               ; preds = %.preheader61
  %wide.trip.count86 = zext nneg i32 %.val54 to i64
  br label %.lr.ph71

.preheader:                                       ; preds = %43
  br i1 %27, label %.lr.ph73.preheader, label %.loopexit

.lr.ph73.preheader:                               ; preds = %.preheader
  %wide.trip.count91 = zext nneg i32 %.val54 to i64
  br label %.lr.ph73

.lr.ph71:                                         ; preds = %.lr.ph71.preheader, %.lr.ph71
  %indvars.iv83 = phi i64 [ 0, %.lr.ph71.preheader ], [ %indvars.iv.next84, %.lr.ph71 ]
  %44 = getelementptr inbounds nuw i64, ptr %17, i64 %indvars.iv83
  %45 = load i64, ptr %44, align 8, !tbaa !121
  %46 = getelementptr inbounds nuw i64, ptr %24, i64 %indvars.iv83
  %47 = load i64, ptr %46, align 8, !tbaa !121
  %48 = xor i64 %47, -1
  %49 = and i64 %45, %48
  %50 = getelementptr inbounds nuw i64, ptr %11, i64 %indvars.iv83
  store i64 %49, ptr %50, align 8, !tbaa !121
  %indvars.iv.next84 = add nuw nsw i64 %indvars.iv83, 1
  %exitcond87.not = icmp eq i64 %indvars.iv.next84, %wide.trip.count86
  br i1 %exitcond87.not, label %.loopexit, label %.lr.ph71, !llvm.loop !129

.lr.ph73:                                         ; preds = %.lr.ph73.preheader, %.lr.ph73
  %indvars.iv88 = phi i64 [ 0, %.lr.ph73.preheader ], [ %indvars.iv.next89, %.lr.ph73 ]
  %51 = getelementptr inbounds nuw i64, ptr %17, i64 %indvars.iv88
  %52 = load i64, ptr %51, align 8, !tbaa !121
  %53 = getelementptr inbounds nuw i64, ptr %24, i64 %indvars.iv88
  %54 = load i64, ptr %53, align 8, !tbaa !121
  %55 = and i64 %54, %52
  %56 = getelementptr inbounds nuw i64, ptr %11, i64 %indvars.iv88
  store i64 %55, ptr %56, align 8, !tbaa !121
  %indvars.iv.next89 = add nuw nsw i64 %indvars.iv88, 1
  %exitcond92.not = icmp eq i64 %indvars.iv.next89, %wide.trip.count91
  br i1 %exitcond92.not, label %.loopexit, label %.lr.ph73, !llvm.loop !130

.loopexit:                                        ; preds = %.lr.ph, %.lr.ph69, %.lr.ph71, %.lr.ph73, %.preheader65, %.preheader63, %.preheader61, %.preheader
  ret void
}